target datalayout = "e-m:e-p270:32:32-p271:32:32-p272:64:64-i64:64-i128:128-f80:128-n8:16:32:64-S128"
target triple = "x86_64-pc-linux-gnu"

%struct.darktable_t = type { %struct.dt_codepath_t, i32, i32, ptr, ptr, ptr, ptr, ptr, ptr, ptr, ptr, ptr, ptr, ptr, ptr, ptr, ptr, ptr, ptr, ptr, ptr, ptr, ptr, ptr, ptr, ptr, ptr, ptr, ptr, ptr, [64 x %struct.dt_pthread_mutex_t], %struct.dt_pthread_mutex_t, %struct.dt_pthread_mutex_t, %struct.dt_pthread_mutex_t, %struct.dt_pthread_mutex_t, %struct.dt_pthread_mutex_t, ptr, ptr, ptr, ptr, ptr, ptr, ptr, ptr, ptr, ptr, ptr, ptr, ptr, %struct.dt_lua_state_t, ptr, double, ptr, i32, [47 x i32], i32, i32, ptr, ptr, %struct.dt_sys_resources_t, %struct.dt_backthumb_t, %struct.dt_gimp_t }
%struct.dt_codepath_t = type { i8, [3 x i8] }
%struct.dt_pthread_mutex_t = type { %union.pthread_mutex_t }
%union.pthread_mutex_t = type { %struct.__pthread_mutex_s }
%struct.__pthread_mutex_s = type { i32, i32, i32, i32, i32, i16, i16, %struct.__pthread_internal_list }
%struct.__pthread_internal_list = type { ptr, ptr }
%struct.dt_lua_state_t = type { i32 }
%struct.dt_sys_resources_t = type { i64, i64, ptr, ptr, i32 }
%struct.dt_backthumb_t = type { double, double, i32, i32, i32, i32 }
%struct.dt_gimp_t = type { i32, ptr, ptr, i32, i32 }
%struct.dt_camctl_t = type { %struct.dt_pthread_mutex_t, %struct.dt_pthread_mutex_t, i64, ptr, ptr, ptr, ptr, ptr, ptr, ptr, ptr, i32, i32, i32 }
%struct.dt_camera_t = type { ptr, ptr, %struct.CameraText, ptr, ptr, %struct.dt_pthread_mutex_t, i32, i32, i32, i32, i32, i32, i32, i32, i32, ptr, %struct.dt_pthread_mutex_t, ptr, %struct.anon, ptr, ptr, i32, i32, i32, i32, ptr, i32, i32, i32, i32, i32, i32, i32, i32, i64, %struct.dt_pthread_mutex_t, %struct.dt_pthread_mutex_t }
%struct.CameraText = type { [32768 x i8] }
%struct.anon = type { ptr, i32 }
%struct._camctl_camera_set_property_string_job_t = type { i32, ptr, ptr }

@darktable = external global %struct.darktable_t, align 8
@.str.26 = private unnamed_addr constant [66 x i8] c"[camera_control] failed to set property from camera, camera==NULL\00", align 1

; Function Attrs: inlinehint nounwind uwtable
define internal i32 @dt_pthread_mutex_unlock(ptr noundef %0) #4 {
  %2 = alloca ptr, align 8
  store ptr %0, ptr %2, align 8, !tbaa !91
  %3 = load ptr, ptr %2, align 8, !tbaa !91
  %4 = getelementptr inbounds nuw %struct.dt_pthread_mutex_t, ptr %3, i32 0, i32 0
  %5 = call i32 @pthread_mutex_unlock(ptr noundef %4) #10
  ret i32 %5
}

; Function Attrs: inlinehint nounwind uwtable
define internal i32 @dt_pthread_mutex_lock(ptr noundef %0) #4 {
  %2 = alloca ptr, align 8
  store ptr %0, ptr %2, align 8, !tbaa !91
  %3 = load ptr, ptr %2, align 8, !tbaa !91
  %4 = getelementptr inbounds nuw %struct.dt_pthread_mutex_t, ptr %3, i32 0, i32 0
  %5 = call i32 @pthread_mutex_lock(ptr noundef %4) #10
  ret i32 %5
}

; Function Attrs: nounwind uwtable
define internal void @_camera_add_job(ptr noundef %0, ptr noundef %1, ptr noundef %2) #0 {
  %4 = alloca ptr, align 8
  %5 = alloca ptr, align 8
  %6 = alloca ptr, align 8
  %7 = alloca ptr, align 8
  store ptr %0, ptr %4, align 8, !tbaa !6
  store ptr %1, ptr %5, align 8, !tbaa !21
  store ptr %2, ptr %6, align 8, !tbaa !72
  call void @llvm.lifetime.start.p0(i64 8, ptr %7) #10
  %8 = load ptr, ptr %5, align 8, !tbaa !21
  store ptr %8, ptr %7, align 8, !tbaa !21
  %9 = load ptr, ptr %7, align 8, !tbaa !21
  %10 = getelementptr inbounds nuw %struct.dt_camera_t, ptr %9, i32 0, i32 16
  %11 = call i32 @dt_pthread_mutex_lock(ptr noundef %10)
  %12 = load ptr, ptr %7, align 8, !tbaa !21
  %13 = getelementptr inbounds nuw %struct.dt_camera_t, ptr %12, i32 0, i32 17
  %14 = load ptr, ptr %13, align 8, !tbaa !164
  %15 = load ptr, ptr %6, align 8, !tbaa !72
  %16 = call ptr @g_list_append(ptr noundef %14, ptr noundef %15)
  %17 = load ptr, ptr %7, align 8, !tbaa !21
  %18 = getelementptr inbounds nuw %struct.dt_camera_t, ptr %17, i32 0, i32 17
  store ptr %16, ptr %18, align 8, !tbaa !164
  %19 = load ptr, ptr %7, align 8, !tbaa !21
  %20 = getelementptr inbounds nuw %struct.dt_camera_t, ptr %19, i32 0, i32 16
  %21 = call i32 @dt_pthread_mutex_unlock(ptr noundef %20)
  call void @llvm.lifetime.end.p0(i64 8, ptr %7) #10
  ret void
}

; Function Attrs: nounwind uwtable
define void @dt_camctl_camera_set_property_string(ptr noundef %0, ptr noundef %1, ptr noundef %2, ptr noundef %3) #0 {
  %5 = alloca ptr, align 8
  %6 = alloca ptr, align 8
  %7 = alloca ptr, align 8
  %8 = alloca ptr, align 8
  %9 = alloca ptr, align 8
  %10 = alloca i32, align 4
  %11 = alloca ptr, align 8
  %12 = alloca ptr, align 8
  store ptr %0, ptr %5, align 8, !tbaa !6
  store ptr %1, ptr %6, align 8, !tbaa !21
  store ptr %2, ptr %7, align 8, !tbaa !63
  store ptr %3, ptr %8, align 8, !tbaa !63
  call void @llvm.lifetime.start.p0(i64 8, ptr %9) #10
  %13 = load ptr, ptr %5, align 8, !tbaa !6
  store ptr %13, ptr %9, align 8, !tbaa !6
  %14 = load ptr, ptr %6, align 8, !tbaa !21
  %15 = icmp ne ptr %14, null
  br i1 %15, label %40, label %16

16:                                               ; preds = %4
  %17 = load ptr, ptr %9, align 8, !tbaa !6
  %18 = getelementptr inbounds nuw %struct.dt_camctl_t, ptr %17, i32 0, i32 10
  %19 = load ptr, ptr %18, align 8, !tbaa !11
  store ptr %19, ptr %6, align 8, !tbaa !21
  %20 = icmp eq ptr %19, null
  br i1 %20, label %21, label %40

21:                                               ; preds = %16
  %22 = load ptr, ptr %9, align 8, !tbaa !6
  %23 = getelementptr inbounds nuw %struct.dt_camctl_t, ptr %22, i32 0, i32 9
  %24 = load ptr, ptr %23, align 8, !tbaa !65
  store ptr %24, ptr %6, align 8, !tbaa !21
  %25 = icmp eq ptr %24, null
  br i1 %25, label %26, label %40

26:                                               ; preds = %21
  br label %27

27:                                               ; preds = %26
  %28 = load i32, ptr getelementptr inbounds nuw (%struct.darktable_t, ptr @darktable, i32 0, i32 2), align 8, !tbaa !22
  %29 = and i32 32, %28
  %30 = icmp ne i32 %29, 0
  br i1 %30, label %31, label %37

31:                                               ; preds = %27
  %32 = load i32, ptr getelementptr inbounds nuw (%struct.darktable_t, ptr @darktable, i32 0, i32 2), align 8, !tbaa !22
  %33 = xor i32 %32, -1
  %34 = and i32 0, %33
  %35 = icmp ne i32 %34, 0
  br i1 %35, label %37, label %36

36:                                               ; preds = %31
  call void (ptr, ...) @dt_print_ext(ptr noundef @.str.26)
  br label %37

37:                                               ; preds = %36, %31, %27
  br label %38

38:                                               ; preds = %37
  br label %39

39:                                               ; preds = %38
  store i32 1, ptr %10, align 4
  br label %56

40:                                               ; preds = %21, %16, %4
  call void @llvm.lifetime.start.p0(i64 8, ptr %11) #10
  %41 = load ptr, ptr %6, align 8, !tbaa !21
  store ptr %41, ptr %11, align 8, !tbaa !21
  call void @llvm.lifetime.start.p0(i64 8, ptr %12) #10
  %42 = call noalias ptr @g_malloc(i64 noundef 24) #11
  store ptr %42, ptr %12, align 8, !tbaa !158
  %43 = load ptr, ptr %12, align 8, !tbaa !158
  %44 = getelementptr inbounds nuw %struct._camctl_camera_set_property_string_job_t, ptr %43, i32 0, i32 0
  store i32 5, ptr %44, align 8, !tbaa !160
  %45 = load ptr, ptr %7, align 8, !tbaa !63
  %46 = call noalias ptr @g_strdup(ptr noundef %45)
  %47 = load ptr, ptr %12, align 8, !tbaa !158
  %48 = getelementptr inbounds nuw %struct._camctl_camera_set_property_string_job_t, ptr %47, i32 0, i32 1
  store ptr %46, ptr %48, align 8, !tbaa !162
  %49 = load ptr, ptr %8, align 8, !tbaa !63
  %50 = call noalias ptr @g_strdup(ptr noundef %49)
  %51 = load ptr, ptr %12, align 8, !tbaa !158
  %52 = getelementptr inbounds nuw %struct._camctl_camera_set_property_string_job_t, ptr %51, i32 0, i32 2
  store ptr %50, ptr %52, align 8, !tbaa !163
  %53 = load ptr, ptr %9, align 8, !tbaa !6
  %54 = load ptr, ptr %11, align 8, !tbaa !21
  %55 = load ptr, ptr %12, align 8, !tbaa !158
  call void @_camera_add_job(ptr noundef %53, ptr noundef %54, ptr noundef %55)
  call void @llvm.lifetime.end.p0(i64 8, ptr %12) #10
  call void @llvm.lifetime.end.p0(i64 8, ptr %11) #10
  store i32 0, ptr %10, align 4
  br label %56

56:                                               ; preds = %40, %39
  call void @llvm.lifetime.end.p0(i64 8, ptr %9) #10
  %57 = load i32, ptr %10, align 4
  switch i32 %57, label %59 [
    i32 0, label %58
    i32 1, label %58
  ]

58:                                               ; preds = %56, %56
  ret void

59:                                               ; preds = %56
  unreachable
}